; Function Attrs: mustprogress nounwind willreturn uwtable
define void @Ssc_GiaResetPiPattern(ptr noundef captures(none) initializes((812, 816)) %0, i32 noundef %1) local_unnamed_addr #4 {
  %3 = getelementptr inbounds nuw i8, ptr %0, i64 812
  store i32 0, ptr %3, align 4, !tbaa !14
  %4 = getelementptr inbounds nuw i8, ptr %0, i64 848
  %5 = load ptr, ptr %4, align 8, !tbaa !35
  %6 = icmp eq ptr %5, null
  br i1 %6, label %7, label %._crit_edge

._crit_edge:                                      ; preds = %2
  %.pre = load i32, ptr %5, align 8, !tbaa !13
  br label %8

7:                                                ; preds = %2
  %calloc.i.i = tail call noalias noundef dereferenceable_or_null(16) ptr @calloc(i64 1, i64 16)
  store ptr %calloc.i.i, ptr %4, align 8, !tbaa !35
  br label %8

8:                                                ; preds = %._crit_edge, %7
  %9 = phi i32 [ 0, %7 ], [ %.pre, %._crit_edge ]
  %10 = phi ptr [ %calloc.i.i, %7 ], [ %5, %._crit_edge ]
  %11 = getelementptr i8, ptr %0, i64 64
  %.val = load ptr, ptr %11, align 8, !tbaa !36
  %12 = getelementptr i8, ptr %.val, i64 4
  %.val.val = load i32, ptr %12, align 4, !tbaa !37
  %13 = mul nsw i32 %.val.val, %1
  %.not.i.i = icmp slt i32 %9, %13
  br i1 %.not.i.i, label %14, label %Vec_WrdGrow.exit.i

14:                                               ; preds = %8
  %15 = getelementptr inbounds nuw i8, ptr %10, i64 8
  %16 = load ptr, ptr %15, align 8, !tbaa !10
  %.not9.i.i = icmp eq ptr %16, null
  %17 = sext i32 %13 to i64
  %18 = shl nsw i64 %17, 3
  br i1 %.not9.i.i, label %21, label %19

19:                                               ; preds = %14
  %20 = tail call ptr @realloc(ptr noundef nonnull %16, i64 noundef %18) #15
  br label %23

21:                                               ; preds = %14
  %22 = tail call noalias ptr @malloc(i64 noundef %18) #16
  br label %23

23:                                               ; preds = %21, %19
  %24 = phi ptr [ %20, %19 ], [ %22, %21 ]
  store ptr %24, ptr %15, align 8, !tbaa !10
  store i32 %13, ptr %10, align 8, !tbaa !13
  br label %Vec_WrdGrow.exit.i

Vec_WrdGrow.exit.i:                               ; preds = %23, %8
  %25 = icmp sgt i32 %13, 0
  br i1 %25, label %.lr.ph.i, label %Vec_WrdFill.exit

.lr.ph.i:                                         ; preds = %Vec_WrdGrow.exit.i
  %26 = getelementptr inbounds nuw i8, ptr %10, i64 8
  %27 = load ptr, ptr %26, align 8, !tbaa !10
  %28 = zext nneg i32 %13 to i64
  %29 = shl nuw nsw i64 %28, 3
  tail call void @llvm.memset.p0.i64(ptr align 8 %27, i8 0, i64 %29, i1 false), !tbaa !38
  br label %Vec_WrdFill.exit

Vec_WrdFill.exit:                                 ; preds = %Vec_WrdGrow.exit.i, %.lr.ph.i
  %30 = getelementptr inbounds nuw i8, ptr %10, i64 4
  store i32 %13, ptr %30, align 4, !tbaa !3
  ret void
}